target datalayout = "e-m:e-p270:32:32-p271:32:32-p272:64:64-i64:64-i128:128-f80:128-n8:16:32:64-S128"
target triple = "x86_64-pc-linux-gnu"

%struct.m384 = type { <2 x i64>, <2 x i64>, <2 x i64> }

; Function Attrs: alwaysinline nounwind uwtable
define internal i64 @_pdep_u64(i64 noundef %0, i64 noundef %1) #2 {
  %3 = alloca i64, align 8
  %4 = alloca i64, align 8
  store i64 %0, ptr %3, align 8
  store i64 %1, ptr %4, align 8
  %5 = load i64, ptr %3, align 8
  %6 = load i64, ptr %4, align 8
  %7 = call i64 @llvm.x86.bmi.pdep.64(i64 %5, i64 %6)
  ret i64 %7
}

; Function Attrs: alwaysinline nounwind uwtable
define internal i64 @_mm_popcnt_u64(i64 noundef %0) #2 {
  %2 = alloca i64, align 8
  store i64 %0, ptr %2, align 8
  %3 = load i64, ptr %2, align 8
  %4 = call i64 @llvm.ctpop.i64(i64 %3)
  %5 = trunc i64 %4 to i32
  %6 = sext i32 %5 to i64
  ret i64 %6
}

; Function Attrs: alwaysinline nounwind uwtable
define internal <2 x i64> @_mm_set_epi64x(i64 noundef %0, i64 noundef %1) #4 {
  %3 = alloca i64, align 8
  %4 = alloca i64, align 8
  %5 = alloca <2 x i64>, align 16
  store i64 %0, ptr %3, align 8
  store i64 %1, ptr %4, align 8
  %6 = load i64, ptr %4, align 8
  %7 = insertelement <2 x i64> poison, i64 %6, i32 0
  %8 = load i64, ptr %3, align 8
  %9 = insertelement <2 x i64> %7, i64 %8, i32 1
  store <2 x i64> %9, ptr %5, align 16
  %10 = load <2 x i64>, ptr %5, align 16
  ret <2 x i64> %10
}

; Function Attrs: alwaysinline nounwind uwtable
define internal i64 @expand64(i64 noundef %0, i64 noundef %1) #2 {
  %3 = alloca i64, align 8
  %4 = alloca i64, align 8
  store i64 %0, ptr %3, align 8
  store i64 %1, ptr %4, align 8
  %5 = load i64, ptr %3, align 8
  %6 = load i64, ptr %4, align 8
  %7 = call i64 @_pdep_u64(i64 noundef %5, i64 noundef %6)
  ret i64 %7
}

; Function Attrs: alwaysinline nounwind uwtable
define internal void @unpack_bits_64(ptr noundef %0, ptr noundef %1, ptr noundef %2, i32 noundef %3) #2 {
  %5 = alloca ptr, align 8
  %6 = alloca ptr, align 8
  %7 = alloca ptr, align 8
  %8 = alloca i32, align 4
  %9 = alloca i32, align 4
  %10 = alloca i32, align 4
  %11 = alloca i32, align 4
  %12 = alloca i64, align 8
  %13 = alloca i32, align 4
  %14 = alloca i32, align 4
  %15 = alloca i64, align 8
  %16 = alloca i32, align 4
  %17 = alloca i64, align 8
  store ptr %0, ptr %5, align 8
  store ptr %1, ptr %6, align 8
  store ptr %2, ptr %7, align 8
  store i32 %3, ptr %8, align 4
  call void @llvm.lifetime.start.p0(i64 4, ptr %9) #10
  store i32 0, ptr %9, align 4
  call void @llvm.lifetime.start.p0(i64 4, ptr %10) #10
  store i32 0, ptr %10, align 4
  br label %18

18:                                               ; preds = %95, %4
  %19 = load i32, ptr %10, align 4
  %20 = load i32, ptr %8, align 4
  %21 = icmp ult i32 %19, %20
  br i1 %21, label %23, label %22

22:                                               ; preds = %18
  store i32 2, ptr %11, align 4
  call void @llvm.lifetime.end.p0(i64 4, ptr %10) #10
  br label %98

23:                                               ; preds = %18
  call void @llvm.lifetime.start.p0(i64 8, ptr %12) #10
  store i64 0, ptr %12, align 8
  call void @llvm.lifetime.start.p0(i64 4, ptr %13) #10
  %24 = load ptr, ptr %7, align 8
  %25 = load i32, ptr %10, align 4
  %26 = zext i32 %25 to i64
  %27 = getelementptr inbounds nuw i32, ptr %24, i64 %26
  %28 = load i32, ptr %27, align 4
  store i32 %28, ptr %13, align 4
  call void @llvm.lifetime.start.p0(i64 4, ptr %14) #10
  store i32 0, ptr %14, align 4
  br label %29

29:                                               ; preds = %88, %86, %23
  %30 = load i32, ptr %13, align 4
  %31 = icmp ne i32 %30, 0
  br i1 %31, label %32, label %89

32:                                               ; preds = %29
  call void @llvm.lifetime.start.p0(i64 8, ptr %15) #10
  %33 = load ptr, ptr %6, align 8
  %34 = load i8, ptr %33, align 1
  %35 = zext i8 %34 to i32
  %36 = load i32, ptr %9, align 4
  %37 = ashr i32 %35, %36
  %38 = sext i32 %37 to i64
  store i64 %38, ptr %15, align 8
  call void @llvm.lifetime.start.p0(i64 4, ptr %16) #10
  %39 = load i32, ptr %9, align 4
  %40 = sub i32 8, %39
  store i32 %40, ptr %16, align 4
  %41 = load i32, ptr %13, align 4
  %42 = load i32, ptr %16, align 4
  %43 = icmp ule i32 %41, %42
  br i1 %43, label %44, label %70

44:                                               ; preds = %32
  call void @llvm.lifetime.start.p0(i64 8, ptr %17) #10
  %45 = load i64, ptr %15, align 8
  %46 = load i32, ptr %13, align 4
  %47 = shl i32 1, %46
  %48 = sub i32 %47, 1
  %49 = zext i32 %48 to i64
  %50 = and i64 %45, %49
  store i64 %50, ptr %17, align 8
  %51 = load i64, ptr %17, align 8
  %52 = load i32, ptr %14, align 4
  %53 = zext i32 %52 to i64
  %54 = shl i64 %51, %53
  %55 = load i64, ptr %12, align 8
  %56 = or i64 %55, %54
  store i64 %56, ptr %12, align 8
  %57 = load i32, ptr %13, align 4
  %58 = load i32, ptr %14, align 4
  %59 = add i32 %58, %57
  store i32 %59, ptr %14, align 4
  %60 = load i32, ptr %13, align 4
  %61 = load i32, ptr %9, align 4
  %62 = add i32 %61, %60
  store i32 %62, ptr %9, align 4
  store i32 0, ptr %13, align 4
  %63 = load i32, ptr %9, align 4
  %64 = icmp ult i32 %63, 8
  br i1 %64, label %65, label %66

65:                                               ; preds = %44
  store i32 5, ptr %11, align 4
  br label %67

66:                                               ; preds = %44
  store i32 0, ptr %11, align 4
  br label %67

67:                                               ; preds = %66, %65
  call void @llvm.lifetime.end.p0(i64 8, ptr %17) #10
  %68 = load i32, ptr %11, align 4
  switch i32 %68, label %86 [
    i32 0, label %69
  ]

69:                                               ; preds = %67
  br label %83

70:                                               ; preds = %32
  %71 = load i64, ptr %15, align 8
  %72 = load i32, ptr %14, align 4
  %73 = zext i32 %72 to i64
  %74 = shl i64 %71, %73
  %75 = load i64, ptr %12, align 8
  %76 = or i64 %75, %74
  store i64 %76, ptr %12, align 8
  %77 = load i32, ptr %16, align 4
  %78 = load i32, ptr %14, align 4
  %79 = add i32 %78, %77
  store i32 %79, ptr %14, align 4
  %80 = load i32, ptr %16, align 4
  %81 = load i32, ptr %13, align 4
  %82 = sub i32 %81, %80
  store i32 %82, ptr %13, align 4
  br label %83

83:                                               ; preds = %70, %69
  store i32 0, ptr %9, align 4
  %84 = load ptr, ptr %6, align 8
  %85 = getelementptr inbounds nuw i8, ptr %84, i32 1
  store ptr %85, ptr %6, align 8
  store i32 0, ptr %11, align 4
  br label %86

86:                                               ; preds = %83, %67
  call void @llvm.lifetime.end.p0(i64 4, ptr %16) #10
  call void @llvm.lifetime.end.p0(i64 8, ptr %15) #10
  %87 = load i32, ptr %11, align 4
  switch i32 %87, label %99 [
    i32 0, label %88
    i32 5, label %29
  ]

88:                                               ; preds = %86
  br label %29

89:                                               ; preds = %29
  %90 = load i64, ptr %12, align 8
  %91 = load ptr, ptr %5, align 8
  %92 = load i32, ptr %10, align 4
  %93 = zext i32 %92 to i64
  %94 = getelementptr inbounds nuw i64, ptr %91, i64 %93
  store i64 %90, ptr %94, align 8
  call void @llvm.lifetime.end.p0(i64 4, ptr %14) #10
  call void @llvm.lifetime.end.p0(i64 4, ptr %13) #10
  call void @llvm.lifetime.end.p0(i64 8, ptr %12) #10
  br label %95

95:                                               ; preds = %89
  %96 = load i32, ptr %10, align 4
  %97 = add i32 %96, 1
  store i32 %97, ptr %10, align 4
  br label %18

98:                                               ; preds = %22
  call void @llvm.lifetime.end.p0(i64 4, ptr %9) #10
  ret void

99:                                               ; preds = %86
  unreachable
}

; Function Attrs: alwaysinline nounwind uwtable
define internal i32 @popcount64(i64 noundef %0) #2 {
  %2 = alloca i64, align 8
  store i64 %0, ptr %2, align 8
  %3 = load i64, ptr %2, align 8
  %4 = call i64 @_mm_popcnt_u64(i64 noundef %3)
  %5 = trunc i64 %4 to i32
  ret i32 %5
}

; Function Attrs: alwaysinline nounwind uwtable
define internal void @loadcompressed384_64bit(ptr dead_on_unwind noalias writable sret(%struct.m384) align 16 %0, ptr noundef %1, ptr noundef byval(%struct.m384) align 16 %2) #4 {
  %4 = alloca ptr, align 8
  %5 = alloca [6 x i64], align 16
  %6 = alloca [6 x i32], align 16
  %7 = alloca [6 x i64], align 16
  %8 = alloca [6 x i64], align 16
  store ptr %1, ptr %4, align 8
  call void @llvm.lifetime.start.p0(i64 48, ptr %5) #10
  %9 = getelementptr inbounds [6 x i64], ptr %5, i64 0, i64 0
  call void @llvm.memcpy.p0.p0.i64(ptr align 16 %9, ptr align 16 %2, i64 48, i1 false)
  call void @llvm.lifetime.start.p0(i64 24, ptr %6) #10
  %10 = getelementptr inbounds [6 x i64], ptr %5, i64 0, i64 0
  %11 = load i64, ptr %10, align 16
  %12 = call i32 @popcount64(i64 noundef %11)
  store i32 %12, ptr %6, align 4
  %13 = getelementptr inbounds i32, ptr %6, i64 1
  %14 = getelementptr inbounds [6 x i64], ptr %5, i64 0, i64 1
  %15 = load i64, ptr %14, align 8
  %16 = call i32 @popcount64(i64 noundef %15)
  store i32 %16, ptr %13, align 4
  %17 = getelementptr inbounds i32, ptr %6, i64 2
  %18 = getelementptr inbounds [6 x i64], ptr %5, i64 0, i64 2
  %19 = load i64, ptr %18, align 16
  %20 = call i32 @popcount64(i64 noundef %19)
  store i32 %20, ptr %17, align 4
  %21 = getelementptr inbounds i32, ptr %6, i64 3
  %22 = getelementptr inbounds [6 x i64], ptr %5, i64 0, i64 3
  %23 = load i64, ptr %22, align 8
  %24 = call i32 @popcount64(i64 noundef %23)
  store i32 %24, ptr %21, align 4
  %25 = getelementptr inbounds i32, ptr %6, i64 4
  %26 = getelementptr inbounds [6 x i64], ptr %5, i64 0, i64 4
  %27 = load i64, ptr %26, align 16
  %28 = call i32 @popcount64(i64 noundef %27)
  store i32 %28, ptr %25, align 4
  %29 = getelementptr inbounds i32, ptr %6, i64 5
  %30 = getelementptr inbounds [6 x i64], ptr %5, i64 0, i64 5
  %31 = load i64, ptr %30, align 8
  %32 = call i32 @popcount64(i64 noundef %31)
  store i32 %32, ptr %29, align 4
  call void @llvm.lifetime.start.p0(i64 48, ptr %7) #10
  %33 = getelementptr inbounds [6 x i64], ptr %7, i64 0, i64 0
  %34 = load ptr, ptr %4, align 8
  %35 = getelementptr inbounds [6 x i32], ptr %6, i64 0, i64 0
  call void @unpack_bits_64(ptr noundef %33, ptr noundef %34, ptr noundef %35, i32 noundef 6)
  call void @llvm.lifetime.start.p0(i64 48, ptr %8) #10
  %36 = getelementptr inbounds [6 x i64], ptr %7, i64 0, i64 0
  %37 = load i64, ptr %36, align 16
  %38 = getelementptr inbounds [6 x i64], ptr %5, i64 0, i64 0
  %39 = load i64, ptr %38, align 16
  %40 = call i64 @expand64(i64 noundef %37, i64 noundef %39)
  store i64 %40, ptr %8, align 8
  %41 = getelementptr inbounds i64, ptr %8, i64 1
  %42 = getelementptr inbounds [6 x i64], ptr %7, i64 0, i64 1
  %43 = load i64, ptr %42, align 8
  %44 = getelementptr inbounds [6 x i64], ptr %5, i64 0, i64 1
  %45 = load i64, ptr %44, align 8
  %46 = call i64 @expand64(i64 noundef %43, i64 noundef %45)
  store i64 %46, ptr %41, align 8
  %47 = getelementptr inbounds i64, ptr %8, i64 2
  %48 = getelementptr inbounds [6 x i64], ptr %7, i64 0, i64 2
  %49 = load i64, ptr %48, align 16
  %50 = getelementptr inbounds [6 x i64], ptr %5, i64 0, i64 2
  %51 = load i64, ptr %50, align 16
  %52 = call i64 @expand64(i64 noundef %49, i64 noundef %51)
  store i64 %52, ptr %47, align 8
  %53 = getelementptr inbounds i64, ptr %8, i64 3
  %54 = getelementptr inbounds [6 x i64], ptr %7, i64 0, i64 3
  %55 = load i64, ptr %54, align 8
  %56 = getelementptr inbounds [6 x i64], ptr %5, i64 0, i64 3
  %57 = load i64, ptr %56, align 8
  %58 = call i64 @expand64(i64 noundef %55, i64 noundef %57)
  store i64 %58, ptr %53, align 8
  %59 = getelementptr inbounds i64, ptr %8, i64 4
  %60 = getelementptr inbounds [6 x i64], ptr %7, i64 0, i64 4
  %61 = load i64, ptr %60, align 16
  %62 = getelementptr inbounds [6 x i64], ptr %5, i64 0, i64 4
  %63 = load i64, ptr %62, align 16
  %64 = call i64 @expand64(i64 noundef %61, i64 noundef %63)
  store i64 %64, ptr %59, align 8
  %65 = getelementptr inbounds i64, ptr %8, i64 5
  %66 = getelementptr inbounds [6 x i64], ptr %7, i64 0, i64 5
  %67 = load i64, ptr %66, align 8
  %68 = getelementptr inbounds [6 x i64], ptr %5, i64 0, i64 5
  %69 = load i64, ptr %68, align 8
  %70 = call i64 @expand64(i64 noundef %67, i64 noundef %69)
  store i64 %70, ptr %65, align 8
  %71 = getelementptr inbounds nuw %struct.m384, ptr %0, i32 0, i32 0
  %72 = getelementptr inbounds [6 x i64], ptr %8, i64 0, i64 1
  %73 = load i64, ptr %72, align 8
  %74 = getelementptr inbounds [6 x i64], ptr %8, i64 0, i64 0
  %75 = load i64, ptr %74, align 16
  %76 = call <2 x i64> @_mm_set_epi64x(i64 noundef %73, i64 noundef %75)
  store <2 x i64> %76, ptr %71, align 16
  %77 = getelementptr inbounds nuw %struct.m384, ptr %0, i32 0, i32 1
  %78 = getelementptr inbounds [6 x i64], ptr %8, i64 0, i64 3
  %79 = load i64, ptr %78, align 8
  %80 = getelementptr inbounds [6 x i64], ptr %8, i64 0, i64 2
  %81 = load i64, ptr %80, align 16
  %82 = call <2 x i64> @_mm_set_epi64x(i64 noundef %79, i64 noundef %81)
  store <2 x i64> %82, ptr %77, align 16
  %83 = getelementptr inbounds nuw %struct.m384, ptr %0, i32 0, i32 2
  %84 = getelementptr inbounds [6 x i64], ptr %8, i64 0, i64 5
  %85 = load i64, ptr %84, align 8
  %86 = getelementptr inbounds [6 x i64], ptr %8, i64 0, i64 4
  %87 = load i64, ptr %86, align 16
  %88 = call <2 x i64> @_mm_set_epi64x(i64 noundef %85, i64 noundef %87)
  store <2 x i64> %88, ptr %83, align 16
  call void @llvm.lifetime.end.p0(i64 48, ptr %8) #10
  call void @llvm.lifetime.end.p0(i64 48, ptr %7) #10
  call void @llvm.lifetime.end.p0(i64 24, ptr %6) #10
  call void @llvm.lifetime.end.p0(i64 48, ptr %5) #10
  ret void
}

; Function Attrs: nounwind uwtable
define hidden void @loadcompressed384(ptr noundef %0, ptr noundef %1, ptr noundef %2, i32 noundef %3) #0 {
  %5 = alloca ptr, align 8
  %6 = alloca ptr, align 8
  %7 = alloca ptr, align 8
  %8 = alloca i32, align 4
  %9 = alloca %struct.m384, align 16
  store ptr %0, ptr %5, align 8
  store ptr %1, ptr %6, align 8
  store ptr %2, ptr %7, align 8
  store i32 %3, ptr %8, align 4
  %10 = load ptr, ptr %5, align 8
  call void @llvm.lifetime.start.p0(i64 48, ptr %9) #10
  %11 = load ptr, ptr %6, align 8
  %12 = load ptr, ptr %7, align 8
  call void @loadcompressed384_64bit(ptr dead_on_unwind writable sret(%struct.m384) align 16 %9, ptr noundef %11, ptr noundef byval(%struct.m384) align 16 %12)
  call void @llvm.memcpy.p0.p0.i64(ptr align 16 %10, ptr align 16 %9, i64 48, i1 false)
  call void @llvm.lifetime.end.p0(i64 48, ptr %9) #10
  ret void
}