; Function Attrs: nofree norecurse nosync nounwind memory(argmem: readwrite) uwtable
define hidden void @loadcompressed384(ptr noundef writeonly captures(none) %0, ptr noundef readonly captures(none) %1, ptr noundef readonly captures(none) %2, i32 noundef %3) local_unnamed_addr #2 {
  %5 = alloca [6 x i32], align 16
  %6 = alloca [6 x i64], align 16
  %.sroa.03.0.copyload = load i64, ptr %2, align 1
  %.sroa.44.0..sroa_idx = getelementptr inbounds nuw i8, ptr %2, i64 8
  %.sroa.44.0.copyload = load i64, ptr %.sroa.44.0..sroa_idx, align 1
  %.sroa.55.0..sroa_idx = getelementptr inbounds nuw i8, ptr %2, i64 16
  %.sroa.55.0.copyload = load i64, ptr %.sroa.55.0..sroa_idx, align 1
  %.sroa.6.0..sroa_idx = getelementptr inbounds nuw i8, ptr %2, i64 24
  %.sroa.6.0.copyload = load i64, ptr %.sroa.6.0..sroa_idx, align 1
  %.sroa.7.0..sroa_idx = getelementptr inbounds nuw i8, ptr %2, i64 32
  %.sroa.7.0.copyload = load i64, ptr %.sroa.7.0..sroa_idx, align 1
  %.sroa.8.0..sroa_idx = getelementptr inbounds nuw i8, ptr %2, i64 40
  %.sroa.8.0.copyload = load i64, ptr %.sroa.8.0..sroa_idx, align 1
  call void @llvm.lifetime.start.p0(i64 24, ptr nonnull %5) #7, !noalias !5
  %7 = tail call range(i64 0, 65) i64 @llvm.ctpop.i64(i64 %.sroa.03.0.copyload)
  %8 = trunc nuw nsw i64 %7 to i32
  store i32 %8, ptr %5, align 16, !noalias !5
  %9 = getelementptr inbounds nuw i8, ptr %5, i64 4
  %10 = tail call range(i64 0, 65) i64 @llvm.ctpop.i64(i64 %.sroa.44.0.copyload)
  %11 = trunc nuw nsw i64 %10 to i32
  store i32 %11, ptr %9, align 4, !noalias !5
  %12 = getelementptr inbounds nuw i8, ptr %5, i64 8
  %13 = tail call range(i64 0, 65) i64 @llvm.ctpop.i64(i64 %.sroa.55.0.copyload)
  %14 = trunc nuw nsw i64 %13 to i32
  store i32 %14, ptr %12, align 8, !noalias !5
  %15 = getelementptr inbounds nuw i8, ptr %5, i64 12
  %16 = tail call range(i64 0, 65) i64 @llvm.ctpop.i64(i64 %.sroa.6.0.copyload)
  %17 = trunc nuw nsw i64 %16 to i32
  store i32 %17, ptr %15, align 4, !noalias !5
  %18 = getelementptr inbounds nuw i8, ptr %5, i64 16
  %19 = tail call range(i64 0, 65) i64 @llvm.ctpop.i64(i64 %.sroa.7.0.copyload)
  %20 = trunc nuw nsw i64 %19 to i32
  store i32 %20, ptr %18, align 16, !noalias !5
  %21 = getelementptr inbounds nuw i8, ptr %5, i64 20
  %22 = tail call range(i64 0, 65) i64 @llvm.ctpop.i64(i64 %.sroa.8.0.copyload)
  %23 = trunc nuw nsw i64 %22 to i32
  store i32 %23, ptr %21, align 4, !noalias !5
  call void @llvm.lifetime.start.p0(i64 48, ptr nonnull %6) #7, !noalias !5
  br label %24

24:                                               ; preds = %4, %._crit_edge
  %indvars.iv = phi i64 [ 0, %4 ], [ %indvars.iv.next, %._crit_edge ]
  %.0.i16 = phi ptr [ %1, %4 ], [ %.1.i.lcssa, %._crit_edge ]
  %.032.i15 = phi i32 [ 0, %4 ], [ %.133.i.lcssa, %._crit_edge ]
  %25 = getelementptr inbounds nuw i32, ptr %5, i64 %indvars.iv
  %26 = load i32, ptr %25, align 4, !noalias !5
  %.not.i6 = icmp eq i32 %26, 0
  br i1 %.not.i6, label %._crit_edge, label %.lr.ph

.lr.ph:                                           ; preds = %24, %40
  %.1.i11 = phi ptr [ %47, %40 ], [ %.0.i16, %24 ]
  %.133.i10 = phi i32 [ 0, %40 ], [ %.032.i15, %24 ]
  %.036.i9 = phi i32 [ %45, %40 ], [ 0, %24 ]
  %.039.i8 = phi i32 [ %46, %40 ], [ %26, %24 ]
  %.042.i7 = phi i64 [ %44, %40 ], [ 0, %24 ]
  %27 = load i8, ptr %.1.i11, align 1, !noalias !5
  %28 = zext i8 %27 to i32
  %29 = lshr i32 %28, %.133.i10
  %30 = sub i32 8, %.133.i10
  %.not47.i = icmp ugt i32 %.039.i8, %30
  br i1 %.not47.i, label %40, label %31

31:                                               ; preds = %.lr.ph
  %notmask.i = shl nsw i32 -1, %.039.i8
  %32 = xor i32 %notmask.i, -1
  %33 = and i32 %29, %32
  %34 = zext nneg i32 %33 to i64
  %35 = zext nneg i32 %.036.i9 to i64
  %36 = shl i64 %34, %35
  %37 = or i64 %36, %.042.i7
  %38 = add i32 %.133.i10, %.039.i8
  %39 = icmp ugt i32 %38, 7
  %spec.select = select i1 %39, i32 0, i32 %38
  %spec.select40.idx = zext i1 %39 to i64
  %spec.select40 = getelementptr inbounds nuw i8, ptr %.1.i11, i64 %spec.select40.idx
  br label %._crit_edge

40:                                               ; preds = %.lr.ph
  %41 = zext nneg i32 %29 to i64
  %42 = zext nneg i32 %.036.i9 to i64
  %43 = shl i64 %41, %42
  %44 = or i64 %43, %.042.i7
  %45 = add i32 %30, %.036.i9
  %46 = sub nuw i32 %.039.i8, %30
  %47 = getelementptr inbounds nuw i8, ptr %.1.i11, i64 1
  %.not.i = icmp eq i32 %46, 0
  br i1 %.not.i, label %._crit_edge, label %.lr.ph

._crit_edge:                                      ; preds = %40, %31, %24
  %.042.i.lcssa = phi i64 [ 0, %24 ], [ %37, %31 ], [ %44, %40 ]
  %.133.i.lcssa = phi i32 [ %.032.i15, %24 ], [ %spec.select, %31 ], [ 0, %40 ]
  %.1.i.lcssa = phi ptr [ %.0.i16, %24 ], [ %spec.select40, %31 ], [ %47, %40 ]
  %48 = getelementptr inbounds nuw i64, ptr %6, i64 %indvars.iv
  store i64 %.042.i.lcssa, ptr %48, align 8, !noalias !5
  %indvars.iv.next = add nuw nsw i64 %indvars.iv, 1
  %exitcond.not = icmp eq i64 %indvars.iv.next, 6
  br i1 %exitcond.not, label %unpack_bits_64.exit, label %24

unpack_bits_64.exit:                              ; preds = %._crit_edge
  %49 = load i64, ptr %6, align 16, !noalias !5
  %50 = tail call i64 @llvm.x86.bmi.pdep.64(i64 %49, i64 %.sroa.03.0.copyload)
  %51 = getelementptr inbounds nuw i8, ptr %6, i64 8
  %52 = load i64, ptr %51, align 8, !noalias !5
  %53 = tail call i64 @llvm.x86.bmi.pdep.64(i64 %52, i64 %.sroa.44.0.copyload)
  %54 = getelementptr inbounds nuw i8, ptr %6, i64 16
  %55 = load i64, ptr %54, align 16, !noalias !5
  %56 = tail call i64 @llvm.x86.bmi.pdep.64(i64 %55, i64 %.sroa.55.0.copyload)
  %57 = getelementptr inbounds nuw i8, ptr %6, i64 24
  %58 = load i64, ptr %57, align 8, !noalias !5
  %59 = tail call i64 @llvm.x86.bmi.pdep.64(i64 %58, i64 %.sroa.6.0.copyload)
  %60 = getelementptr inbounds nuw i8, ptr %6, i64 32
  %61 = load i64, ptr %60, align 16, !noalias !5
  %62 = tail call i64 @llvm.x86.bmi.pdep.64(i64 %61, i64 %.sroa.7.0.copyload)
  %63 = getelementptr inbounds nuw i8, ptr %6, i64 40
  %64 = load i64, ptr %63, align 8, !noalias !5
  %65 = tail call i64 @llvm.x86.bmi.pdep.64(i64 %64, i64 %.sroa.8.0.copyload)
  %66 = insertelement <2 x i64> poison, i64 %50, i64 0
  %67 = insertelement <2 x i64> %66, i64 %53, i64 1
  %68 = insertelement <2 x i64> poison, i64 %56, i64 0
  %69 = insertelement <2 x i64> %68, i64 %59, i64 1
  %70 = insertelement <2 x i64> poison, i64 %62, i64 0
  %71 = insertelement <2 x i64> %70, i64 %65, i64 1
  call void @llvm.lifetime.end.p0(i64 48, ptr nonnull %6) #7, !noalias !5
  call void @llvm.lifetime.end.p0(i64 24, ptr nonnull %5) #7, !noalias !5
  store <2 x i64> %67, ptr %0, align 16
  %.sroa.4.0..sroa_idx = getelementptr inbounds nuw i8, ptr %0, i64 16
  store <2 x i64> %69, ptr %.sroa.4.0..sroa_idx, align 16
  %.sroa.5.0..sroa_idx = getelementptr inbounds nuw i8, ptr %0, i64 32
  store <2 x i64> %71, ptr %.sroa.5.0..sroa_idx, align 16
  ret void
}